(igym_collision_avoidance.envs.policies.CADRL.scripts.neural_networks.nn_training_param
NN_training_param
p0
(dp1
S'sgd_step_size'
p2
F0.5
sS'sgd_step_c'
p3
F0.1
sS'reg_lambda'
p4
F0.001
sS'w_scale'
p5
F0.1
sS'sgd_step_epsilon'
p6
F0.1
sS'nb_iter'
p7
I1000
sS'sgd_stepsize_mode'
p8
S'fixed_decay'
p9
sS'sgd_batch_size'
p10
I500
sb.